target datalayout = "e-m:e-p270:32:32-p271:32:32-p272:64:64-i64:64-i128:128-f80:128-n8:16:32:64-S128"
target triple = "x86_64-pc-linux-gnu"

%struct._dcerpc_info = type { ptr, i32, i64, i8, i8, i8, i32, i32, i32, i32, i32, i32, i32, i32, ptr, ptr, ptr, ptr, %struct.anon }
%struct.anon = type { i8, ptr, ptr, ptr, i8 }

; Function Attrs: null_pointer_is_valid sspstrong uwtable
define hidden i32 @mapi_dissect_struct_SyncImportReadStateChanges_repl(ptr noundef %0, i32 noundef %1, ptr noundef %2, ptr noundef %3, ptr noundef %4, ptr noundef %5, i32 noundef %6, i32 noundef %7) #0 {
  %9 = alloca ptr, align 8
  %10 = alloca i32, align 4
  %11 = alloca ptr, align 8
  %12 = alloca ptr, align 8
  %13 = alloca ptr, align 8
  %14 = alloca ptr, align 8
  %15 = alloca i32, align 4
  %16 = alloca i32, align 4
  %17 = alloca ptr, align 8
  %18 = alloca i8, align 1
  %19 = alloca i32, align 4
  store ptr %0, ptr %9, align 8
  store i32 %1, ptr %10, align 4
  store ptr %2, ptr %11, align 8
  store ptr %3, ptr %12, align 8
  store ptr %4, ptr %13, align 8
  store ptr %5, ptr %14, align 8
  store i32 %6, ptr %15, align 4
  store i32 %7, ptr %16, align 4
  call void @llvm.lifetime.start.p0(i64 8, ptr %17) #5
  store ptr null, ptr %17, align 8
  call void @llvm.lifetime.start.p0(i64 1, ptr %18) #5
  %20 = load ptr, ptr %13, align 8
  %21 = getelementptr inbounds nuw %struct._dcerpc_info, ptr %20, i32 0, i32 5
  %22 = load i8, ptr %21, align 2, !range !6, !noundef !7
  %23 = trunc i8 %22 to i1
  %24 = zext i1 %23 to i8
  store i8 %24, ptr %18, align 1
  call void @llvm.lifetime.start.p0(i64 4, ptr %19) #5
  %25 = load ptr, ptr %13, align 8
  %26 = getelementptr inbounds nuw %struct._dcerpc_info, ptr %25, i32 0, i32 5
  store i8 1, ptr %26, align 2
  %27 = load i32, ptr %10, align 4
  store i32 %27, ptr %19, align 4
  %28 = load ptr, ptr %12, align 8
  %29 = icmp ne ptr %28, null
  br i1 %29, label %30, label %36

30:                                               ; preds = %8
  %31 = load ptr, ptr %12, align 8
  %32 = load i32, ptr %15, align 4
  %33 = load ptr, ptr %9, align 8
  %34 = load i32, ptr %10, align 4
  %35 = call ptr @proto_tree_add_item(ptr noundef %31, i32 noundef %32, ptr noundef %33, i32 noundef %34, i32 noundef -1, i32 noundef 0)
  store ptr %35, ptr %17, align 8
  br label %36

36:                                               ; preds = %30, %8
  %37 = load ptr, ptr %17, align 8
  %38 = load i32, ptr %10, align 4
  %39 = load i32, ptr %19, align 4
  %40 = sub i32 %38, %39
  call void @proto_item_set_len(ptr noundef %37, i32 noundef %40)
  %41 = load i8, ptr %18, align 1, !range !6, !noundef !7
  %42 = trunc i8 %41 to i1
  %43 = load ptr, ptr %13, align 8
  %44 = getelementptr inbounds nuw %struct._dcerpc_info, ptr %43, i32 0, i32 5
  %45 = zext i1 %42 to i8
  store i8 %45, ptr %44, align 2
  %46 = load i32, ptr %10, align 4
  call void @llvm.lifetime.end.p0(i64 4, ptr %19) #5
  call void @llvm.lifetime.end.p0(i64 1, ptr %18) #5
  call void @llvm.lifetime.end.p0(i64 8, ptr %17) #5
  ret i32 %46
}